; Function Attrs: mustprogress nounwind uwtable
define dso_local noundef zeroext i1 @_ZNK5clang6driver9ToolChain15useIntegratedAsEv(ptr noundef nonnull align 8 dereferenceable(2168) %0) unnamed_addr #0 align 2 {
  %2 = getelementptr inbounds nuw i8, ptr %0, i64 72
  %3 = load ptr, ptr %2, align 8
  %4 = load ptr, ptr %0, align 8
  %5 = getelementptr inbounds i8, ptr %4, i64 152
  %6 = load ptr, ptr %5, align 8
  %7 = tail call noundef zeroext i1 %6(ptr noundef nonnull align 8 dereferenceable(2168) %0) #25
  %8 = tail call noundef zeroext i1 @_ZNK4llvm3opt7ArgList7hasFlagENS0_12OptSpecifierES2_b(ptr noundef nonnull align 8 dereferenceable(176) %3, i32 856, i32 1157, i1 noundef zeroext %7) #25
  ret i1 %8
}